target datalayout = "e-m:e-p270:32:32-p271:32:32-p272:64:64-i64:64-i128:128-f80:128-n8:16:32:64-S128"
target triple = "x86_64-pc-linux-gnu"

%struct._php_random_status_state_xoshiro256starstar = type { [4 x i64] }
%struct._php_random_result = type { i64, i64 }

; Function Attrs: inlinehint nounwind willreturn memory(none) uwtable
define internal i64 @rotl(i64 noundef %0, i32 noundef %1) #8 {
  %3 = alloca i64, align 8
  %4 = alloca i32, align 4
  store i64 %0, ptr %3, align 8, !tbaa !9
  store i32 %1, ptr %4, align 4, !tbaa !23
  %5 = load i64, ptr %3, align 8, !tbaa !9
  %6 = load i32, ptr %4, align 4, !tbaa !23
  %7 = zext i32 %6 to i64
  %8 = shl i64 %5, %7
  %9 = load i64, ptr %3, align 8, !tbaa !9
  %10 = load i32, ptr %4, align 4, !tbaa !23
  %11 = sub nsw i32 64, %10
  %12 = zext i32 %11 to i64
  %13 = lshr i64 %9, %12
  %14 = or i64 %8, %13
  ret i64 %14
}

; Function Attrs: inlinehint nounwind uwtable
define internal i64 @generate_state(ptr noundef %0) #0 {
  %2 = alloca ptr, align 8
  %3 = alloca i64, align 8
  %4 = alloca i64, align 8
  store ptr %0, ptr %2, align 8, !tbaa !4
  call void @llvm.lifetime.start.p0(i64 8, ptr %3) #9
  %5 = load ptr, ptr %2, align 8, !tbaa !4
  %6 = getelementptr inbounds nuw %struct._php_random_status_state_xoshiro256starstar, ptr %5, i32 0, i32 0
  %7 = getelementptr inbounds [4 x i64], ptr %6, i64 0, i64 1
  %8 = load i64, ptr %7, align 8, !tbaa !9
  %9 = mul i64 %8, 5
  %10 = call i64 @rotl(i64 noundef %9, i32 noundef 7) #10
  %11 = mul i64 %10, 9
  store i64 %11, ptr %3, align 8, !tbaa !9
  call void @llvm.lifetime.start.p0(i64 8, ptr %4) #9
  %12 = load ptr, ptr %2, align 8, !tbaa !4
  %13 = getelementptr inbounds nuw %struct._php_random_status_state_xoshiro256starstar, ptr %12, i32 0, i32 0
  %14 = getelementptr inbounds [4 x i64], ptr %13, i64 0, i64 1
  %15 = load i64, ptr %14, align 8, !tbaa !9
  %16 = shl i64 %15, 17
  store i64 %16, ptr %4, align 8, !tbaa !9
  %17 = load ptr, ptr %2, align 8, !tbaa !4
  %18 = getelementptr inbounds nuw %struct._php_random_status_state_xoshiro256starstar, ptr %17, i32 0, i32 0
  %19 = getelementptr inbounds [4 x i64], ptr %18, i64 0, i64 0
  %20 = load i64, ptr %19, align 8, !tbaa !9
  %21 = load ptr, ptr %2, align 8, !tbaa !4
  %22 = getelementptr inbounds nuw %struct._php_random_status_state_xoshiro256starstar, ptr %21, i32 0, i32 0
  %23 = getelementptr inbounds [4 x i64], ptr %22, i64 0, i64 2
  %24 = load i64, ptr %23, align 8, !tbaa !9
  %25 = xor i64 %24, %20
  store i64 %25, ptr %23, align 8, !tbaa !9
  %26 = load ptr, ptr %2, align 8, !tbaa !4
  %27 = getelementptr inbounds nuw %struct._php_random_status_state_xoshiro256starstar, ptr %26, i32 0, i32 0
  %28 = getelementptr inbounds [4 x i64], ptr %27, i64 0, i64 1
  %29 = load i64, ptr %28, align 8, !tbaa !9
  %30 = load ptr, ptr %2, align 8, !tbaa !4
  %31 = getelementptr inbounds nuw %struct._php_random_status_state_xoshiro256starstar, ptr %30, i32 0, i32 0
  %32 = getelementptr inbounds [4 x i64], ptr %31, i64 0, i64 3
  %33 = load i64, ptr %32, align 8, !tbaa !9
  %34 = xor i64 %33, %29
  store i64 %34, ptr %32, align 8, !tbaa !9
  %35 = load ptr, ptr %2, align 8, !tbaa !4
  %36 = getelementptr inbounds nuw %struct._php_random_status_state_xoshiro256starstar, ptr %35, i32 0, i32 0
  %37 = getelementptr inbounds [4 x i64], ptr %36, i64 0, i64 2
  %38 = load i64, ptr %37, align 8, !tbaa !9
  %39 = load ptr, ptr %2, align 8, !tbaa !4
  %40 = getelementptr inbounds nuw %struct._php_random_status_state_xoshiro256starstar, ptr %39, i32 0, i32 0
  %41 = getelementptr inbounds [4 x i64], ptr %40, i64 0, i64 1
  %42 = load i64, ptr %41, align 8, !tbaa !9
  %43 = xor i64 %42, %38
  store i64 %43, ptr %41, align 8, !tbaa !9
  %44 = load ptr, ptr %2, align 8, !tbaa !4
  %45 = getelementptr inbounds nuw %struct._php_random_status_state_xoshiro256starstar, ptr %44, i32 0, i32 0
  %46 = getelementptr inbounds [4 x i64], ptr %45, i64 0, i64 3
  %47 = load i64, ptr %46, align 8, !tbaa !9
  %48 = load ptr, ptr %2, align 8, !tbaa !4
  %49 = getelementptr inbounds nuw %struct._php_random_status_state_xoshiro256starstar, ptr %48, i32 0, i32 0
  %50 = getelementptr inbounds [4 x i64], ptr %49, i64 0, i64 0
  %51 = load i64, ptr %50, align 8, !tbaa !9
  %52 = xor i64 %51, %47
  store i64 %52, ptr %50, align 8, !tbaa !9
  %53 = load i64, ptr %4, align 8, !tbaa !9
  %54 = load ptr, ptr %2, align 8, !tbaa !4
  %55 = getelementptr inbounds nuw %struct._php_random_status_state_xoshiro256starstar, ptr %54, i32 0, i32 0
  %56 = getelementptr inbounds [4 x i64], ptr %55, i64 0, i64 2
  %57 = load i64, ptr %56, align 8, !tbaa !9
  %58 = xor i64 %57, %53
  store i64 %58, ptr %56, align 8, !tbaa !9
  %59 = load ptr, ptr %2, align 8, !tbaa !4
  %60 = getelementptr inbounds nuw %struct._php_random_status_state_xoshiro256starstar, ptr %59, i32 0, i32 0
  %61 = getelementptr inbounds [4 x i64], ptr %60, i64 0, i64 3
  %62 = load i64, ptr %61, align 8, !tbaa !9
  %63 = call i64 @rotl(i64 noundef %62, i32 noundef 45) #10
  %64 = load ptr, ptr %2, align 8, !tbaa !4
  %65 = getelementptr inbounds nuw %struct._php_random_status_state_xoshiro256starstar, ptr %64, i32 0, i32 0
  %66 = getelementptr inbounds [4 x i64], ptr %65, i64 0, i64 3
  store i64 %63, ptr %66, align 8, !tbaa !9
  %67 = load i64, ptr %3, align 8, !tbaa !9
  call void @llvm.lifetime.end.p0(i64 8, ptr %4) #9
  call void @llvm.lifetime.end.p0(i64 8, ptr %3) #9
  ret i64 %67
}

; Function Attrs: nounwind uwtable
define internal { i64, i64 } @generate(ptr noundef %0) #2 {
  %2 = alloca %struct._php_random_result, align 8
  %3 = alloca ptr, align 8
  store ptr %0, ptr %3, align 8, !tbaa !13
  %4 = getelementptr inbounds nuw %struct._php_random_result, ptr %2, i32 0, i32 0
  %5 = load ptr, ptr %3, align 8, !tbaa !13
  %6 = call i64 @generate_state(ptr noundef %5)
  store i64 %6, ptr %4, align 8, !tbaa !14
  %7 = getelementptr inbounds nuw %struct._php_random_result, ptr %2, i32 0, i32 1
  store i64 8, ptr %7, align 8, !tbaa !16
  %8 = load { i64, i64 }, ptr %2, align 8
  ret { i64, i64 } %8
}