; Function Attrs: mustprogress nofree norecurse nosync nounwind willreturn memory(argmem: readwrite) uwtable
define internal { i64, i64 } @generate(ptr noundef captures(none) %0) #2 {
  %2 = getelementptr inbounds nuw i8, ptr %0, i64 8
  %3 = load i64, ptr %2, align 8, !tbaa !4
  %4 = mul i64 %3, 5
  %5 = mul i64 %3, 640
  %6 = lshr i64 %4, 57
  %7 = or disjoint i64 %6, %5
  %8 = mul i64 %7, 9
  %9 = shl i64 %3, 17
  %10 = load i64, ptr %0, align 8, !tbaa !4
  %11 = getelementptr inbounds nuw i8, ptr %0, i64 16
  %12 = load i64, ptr %11, align 8, !tbaa !4
  %13 = xor i64 %12, %10
  %14 = getelementptr inbounds nuw i8, ptr %0, i64 24
  %15 = load i64, ptr %14, align 8, !tbaa !4
  %16 = xor i64 %15, %3
  %17 = xor i64 %13, %3
  store i64 %17, ptr %2, align 8, !tbaa !4
  %18 = xor i64 %16, %10
  store i64 %18, ptr %0, align 8, !tbaa !4
  %19 = xor i64 %13, %9
  store i64 %19, ptr %11, align 8, !tbaa !4
  %20 = tail call i64 @llvm.fshl.i64(i64 %16, i64 %16, i64 45)
  store i64 %20, ptr %14, align 8, !tbaa !4
  %.fca.0.insert = insertvalue { i64, i64 } poison, i64 %8, 0
  %.fca.1.insert = insertvalue { i64, i64 } %.fca.0.insert, i64 8, 1
  ret { i64, i64 } %.fca.1.insert
}